; Function Attrs: mustprogress uwtable
define hidden void @_ZN6google8protobuf13MethodOptions8CopyFromERKS1_(ptr noundef nonnull align 8 dereferenceable(80) %0, ptr noundef nonnull align 8 dereferenceable(80) %1) local_unnamed_addr #3 align 2 personality ptr @__gxx_personality_v0 {
  %3 = icmp eq ptr %1, %0
  br i1 %3, label %27, label %4

4:                                                ; preds = %2
  %5 = getelementptr inbounds nuw i8, ptr %0, i64 16
  tail call void @_ZN6google8protobuf8internal12ExtensionSet5ClearEv(ptr noundef nonnull align 8 dereferenceable(24) %5)
  %6 = getelementptr inbounds nuw i8, ptr %0, i64 56
  %7 = load i32, ptr %6, align 8, !tbaa !22
  %8 = icmp sgt i32 %7, 0
  br i1 %8, label %9, label %_ZN6google8protobuf16RepeatedPtrFieldINS0_19UninterpretedOptionEE5ClearEv.exit.i

9:                                                ; preds = %4
  %10 = getelementptr inbounds nuw i8, ptr %0, i64 64
  %11 = load ptr, ptr %10, align 8, !tbaa !18
  %12 = getelementptr inbounds nuw i8, ptr %11, i64 8
  %wide.trip.count.i.i.i = zext nneg i32 %7 to i64
  br label %13

13:                                               ; preds = %13, %9
  %indvars.iv.i.i.i = phi i64 [ %indvars.iv.next.i.i.i, %13 ], [ 0, %9 ]
  %indvars.iv.next.i.i.i = add nuw nsw i64 %indvars.iv.i.i.i, 1
  %14 = getelementptr inbounds nuw ptr, ptr %12, i64 %indvars.iv.i.i.i
  %15 = load ptr, ptr %14, align 8, !tbaa !27
  tail call void @_ZN6google8protobuf19UninterpretedOption5ClearEv(ptr noundef nonnull align 8 dereferenceable(96) %15)
  %exitcond.not.i.i.i = icmp eq i64 %indvars.iv.next.i.i.i, %wide.trip.count.i.i.i
  br i1 %exitcond.not.i.i.i, label %16, label %13, !llvm.loop !94

16:                                               ; preds = %13
  store i32 0, ptr %6, align 8, !tbaa !22
  br label %_ZN6google8protobuf16RepeatedPtrFieldINS0_19UninterpretedOptionEE5ClearEv.exit.i

_ZN6google8protobuf16RepeatedPtrFieldINS0_19UninterpretedOptionEE5ClearEv.exit.i: ; preds = %16, %4
  %17 = getelementptr inbounds nuw i8, ptr %0, i64 40
  %18 = load i32, ptr %17, align 8, !tbaa !58
  %19 = and i32 %18, 3
  %.not.i = icmp eq i32 %19, 0
  br i1 %.not.i, label %22, label %20

20:                                               ; preds = %_ZN6google8protobuf16RepeatedPtrFieldINS0_19UninterpretedOptionEE5ClearEv.exit.i
  %21 = getelementptr inbounds nuw i8, ptr %0, i64 72
  store i64 0, ptr %21, align 8
  br label %22

22:                                               ; preds = %20, %_ZN6google8protobuf16RepeatedPtrFieldINS0_19UninterpretedOptionEE5ClearEv.exit.i
  store i32 0, ptr %17, align 8
  %23 = getelementptr inbounds nuw i8, ptr %0, i64 8
  %24 = load i64, ptr %23, align 8, !tbaa !8
  %25 = and i64 %24, 1
  %.not1.i = icmp eq i64 %25, 0
  br i1 %.not1.i, label %_ZN6google8protobuf13MethodOptions5ClearEv.exit, label %26

26:                                               ; preds = %22
  tail call void @_ZN6google8protobuf8internal16InternalMetadata7DoClearINS0_15UnknownFieldSetEEEvv(ptr noundef nonnull align 8 dereferenceable(8) %23)
  br label %_ZN6google8protobuf13MethodOptions5ClearEv.exit

_ZN6google8protobuf13MethodOptions5ClearEv.exit:  ; preds = %22, %26
  tail call void @_ZN6google8protobuf13MethodOptions9MergeFromERKS1_(ptr noundef nonnull align 8 dereferenceable(80) %0, ptr noundef nonnull align 8 dereferenceable(80) %1)
  br label %27

27:                                               ; preds = %2, %_ZN6google8protobuf13MethodOptions5ClearEv.exit
  ret void
}